target datalayout = "e-m:e-p270:32:32-p271:32:32-p272:64:64-i64:64-i128:128-f80:128-n8:16:32:64-S128"
target triple = "x86_64-pc-linux-gnu"

@proto_register_wcp.ett = internal global [3 x ptr] [ptr @ett_wcp, ptr @ett_wcp_comp_data, ptr @ett_wcp_field], align 16
@.str.74 = private unnamed_addr constant [22 x i8] c"Wellfleet Compression\00", align 1
@.str.75 = private unnamed_addr constant [4 x i8] c"WCP\00", align 1
@.str.76 = private unnamed_addr constant [4 x i8] c"wcp\00", align 1
@proto_wcp = internal global i32 0, align 4
@wcp_handle = internal global ptr null, align 8

; Function Attrs: null_pointer_is_valid sspstrong uwtable
define hidden void @proto_register_wcp() #0 {
  %1 = alloca ptr, align 8
  call void @llvm.lifetime.start.p0(i64 8, ptr %1) #10
  %2 = call i32 @proto_register_protocol(ptr noundef @.str.74, ptr noundef @.str.75, ptr noundef @.str.76)
  store i32 %2, ptr @proto_wcp, align 4
  %3 = load i32, ptr @proto_wcp, align 4
  call void @proto_register_field_array(i32 noundef %3, ptr noundef @proto_register_wcp.hf, i32 noundef 24)
  call void @proto_register_subtree_array(ptr noundef @proto_register_wcp.ett, i32 noundef 3)
  %4 = load i32, ptr @proto_wcp, align 4
  %5 = call ptr @expert_register_protocol(i32 noundef %4)
  store ptr %5, ptr %1, align 8
  %6 = load ptr, ptr %1, align 8
  call void @expert_register_field_array(ptr noundef %6, ptr noundef @proto_register_wcp.ei, i32 noundef 4)
  %7 = load i32, ptr @proto_wcp, align 4
  %8 = call ptr @register_dissector(ptr noundef @.str.76, ptr noundef @dissect_wcp, i32 noundef %7)
  store ptr %8, ptr @wcp_handle, align 8
  call void @llvm.lifetime.end.p0(i64 8, ptr %1) #10
  ret void
}